target datalayout = "e-m:e-p270:32:32-p271:32:32-p272:64:64-i64:64-i128:128-f80:128-n8:16:32:64-S128"
target triple = "x86_64-pc-linux-gnu"

%struct.SDL_Rect = type { i32, i32, i32, i32 }
%struct.SDL_VideoData = type { ptr, ptr, i32, ptr, i64, i32, ptr, i32, i64, i64, %struct.X11_ClipboardData, %struct.X11_ClipboardData, ptr, i64, %struct.X11_SettingsData, i8, %struct.anon.1, [256 x i32], i8, i8, i8, i64, i8, %struct.SDL_Point, i32, ptr, i32, i8, i32, %struct.anon.2, i8, i64, ptr, ptr, i8, i8, i8 }
%struct.X11_ClipboardData = type { ptr, ptr, ptr, i64, i32 }
%struct.X11_SettingsData = type { ptr }
%struct.anon.1 = type { i64, i64, i64, i64, i64, i64, i64, i64, i64, i64, i64, i64, i64, i64, i64, i64, i64, i64, i64, i64, i64, i64, i64, i64, i64, i64, i64, i64, i64, i64, i64, i64, i64, i64, i64, i64, i64, i64, i64, i64, i64, i64, i64, i64, i64, i64, i64, i64, i64, i64, i64, i64, i64 }
%struct.SDL_Point = type { i32, i32 }
%struct.anon.2 = type { ptr, i32, i32, i32, i16, i32, i32 }
%struct.SDL_Window = type { i32, ptr, ptr, i32, i32, i32, i32, i32, i32, i32, i32, float, float, i32, i32, i64, i64, float, i8, i8, i32, i32, %struct.SDL_Rect, %struct.SDL_Rect, %struct.SDL_Rect, i8, i8, i8, %struct.SDL_DisplayMode, %struct.SDL_DisplayMode, %struct.SDL_HDROutputProperties, float, ptr, i8, i8, i8, i8, i8, i8, i8, i8, i8, i32, i32, i32, i32, %struct.SDL_Rect, i32, i8, %struct.SDL_Rect, i32, %struct.SDL_Rect, ptr, ptr, i32, float, i32, i32, ptr, ptr, ptr, ptr, ptr, ptr, ptr, ptr, ptr }
%struct.SDL_DisplayMode = type { i32, i32, i32, i32, float, float, i32, i32, ptr }
%struct.SDL_HDROutputProperties = type { float, float }
%struct.SDL_DisplayData = type { i32, ptr, i32, i32, i32, i32, i64, i8, i64, [16 x i8] }
%struct.anon.4 = type { ptr, ptr, i32, i32, i32, i32, ptr, i64, i64, i64, i32, ptr, i32, i32, i32, i32, i32, ptr, i32, i32, ptr, ptr, i32, i64, i64, ptr, ptr, ptr, ptr, i32, ptr, ptr, ptr, i32, i32, ptr, i64, i64, i32, i32, ptr, ptr, i32, ptr }
%struct.Screen = type { ptr, ptr, i64, i32, i32, i32, i32, i32, ptr, i32, ptr, ptr, i64, i64, i64, i32, i32, i32, i32, i64 }
%struct.SDL_WindowData = type { ptr, i64, ptr, i64, i8, %struct.XShmSegmentInfo, ptr, ptr, ptr, i8, i32, i32, i32, i32, i8, i8, i8, i64, i32, i64, i8, %struct.SDL_Point, %struct.XConfigureEvent, %struct.XConfigureEvent, ptr, i64, i64, i64, i8, i64, ptr, i8, [4 x i64], %struct.SDL_Rect, i64, %struct._XSyncValue, i8, %struct.SDL_Rect, %struct.SDL_DisplayMode, i32, i32, i8, i8, i8, i8, i8, i8, i8, i8, i32, %struct.XPoint, ptr, ptr, i32, i32, i8 }
%struct.XShmSegmentInfo = type { i64, i32, ptr, i32 }
%struct.XConfigureEvent = type { i32, i64, i32, ptr, i64, i64, i32, i32, i32, i32, i32, i64, i32 }
%struct._XSyncValue = type { i32, i32 }
%struct.XPoint = type { i16, i16 }
%struct.XClientMessageEvent = type { i32, i64, i32, ptr, i64, i64, i32, %union.anon }
%union.anon = type { [5 x i64] }

@X11_XInternAtom = external global ptr, align 8
@X11_XFlush = external global ptr, align 8
@X11_XSendEvent = external global ptr, align 8
@X11_XTranslateCoordinates = external global ptr, align 8
@.str.40 = private unnamed_addr constant [22 x i8] c"_GTK_SHOW_WINDOW_MENU\00", align 1

; Function Attrs: nounwind uwtable
define hidden void @X11_ShowWindowSystemMenu(ptr noundef %0, i32 noundef %1, i32 noundef %2) #0 {
  %4 = alloca ptr, align 8
  %5 = alloca i32, align 4
  %6 = alloca i32, align 4
  %7 = alloca ptr, align 8
  %8 = alloca ptr, align 8
  %9 = alloca ptr, align 8
  %10 = alloca i64, align 8
  %11 = alloca %struct.XClientMessageEvent, align 8
  %12 = alloca i64, align 8
  %13 = alloca i32, align 4
  %14 = alloca i32, align 4
  store ptr %0, ptr %4, align 8
  store i32 %1, ptr %5, align 4
  store i32 %2, ptr %6, align 4
  call void @llvm.lifetime.start.p0(i64 8, ptr %7) #7
  %15 = load ptr, ptr %4, align 8
  %16 = getelementptr inbounds nuw %struct.SDL_Window, ptr %15, i32 0, i32 59
  %17 = load ptr, ptr %16, align 8
  store ptr %17, ptr %7, align 8
  call void @llvm.lifetime.start.p0(i64 8, ptr %8) #7
  %18 = load ptr, ptr %4, align 8
  %19 = call ptr @SDL_GetDisplayDriverDataForWindow(ptr noundef %18)
  store ptr %19, ptr %8, align 8
  call void @llvm.lifetime.start.p0(i64 8, ptr %9) #7
  %20 = load ptr, ptr %7, align 8
  %21 = getelementptr inbounds nuw %struct.SDL_WindowData, ptr %20, i32 0, i32 24
  %22 = load ptr, ptr %21, align 8
  %23 = getelementptr inbounds nuw %struct.SDL_VideoData, ptr %22, i32 0, i32 0
  %24 = load ptr, ptr %23, align 8
  store ptr %24, ptr %9, align 8
  call void @llvm.lifetime.start.p0(i64 8, ptr %10) #7
  %25 = load ptr, ptr %9, align 8
  %26 = getelementptr inbounds nuw %struct.anon.4, ptr %25, i32 0, i32 35
  %27 = load ptr, ptr %26, align 8
  %28 = load ptr, ptr %8, align 8
  %29 = getelementptr inbounds nuw %struct.SDL_DisplayData, ptr %28, i32 0, i32 0
  %30 = load i32, ptr %29, align 8
  %31 = sext i32 %30 to i64
  %32 = getelementptr inbounds %struct.Screen, ptr %27, i64 %31
  %33 = getelementptr inbounds nuw %struct.Screen, ptr %32, i32 0, i32 2
  %34 = load i64, ptr %33, align 8
  store i64 %34, ptr %10, align 8
  call void @llvm.lifetime.start.p0(i64 96, ptr %11) #7
  call void @llvm.lifetime.start.p0(i64 8, ptr %12) #7
  call void @llvm.lifetime.start.p0(i64 4, ptr %13) #7
  call void @llvm.lifetime.start.p0(i64 4, ptr %14) #7
  call void @llvm.memset.p0.i64(ptr align 8 %11, i8 0, i64 96, i1 false)
  %35 = load ptr, ptr @X11_XTranslateCoordinates, align 8
  %36 = load ptr, ptr %9, align 8
  %37 = load ptr, ptr %7, align 8
  %38 = getelementptr inbounds nuw %struct.SDL_WindowData, ptr %37, i32 0, i32 1
  %39 = load i64, ptr %38, align 8
  %40 = load i64, ptr %10, align 8
  %41 = load i32, ptr %5, align 4
  %42 = load i32, ptr %6, align 4
  %43 = call i32 %35(ptr noundef %36, i64 noundef %39, i64 noundef %40, i32 noundef %41, i32 noundef %42, ptr noundef %13, ptr noundef %14, ptr noundef %12)
  %44 = getelementptr inbounds nuw %struct.XClientMessageEvent, ptr %11, i32 0, i32 0
  store i32 33, ptr %44, align 8
  %45 = load ptr, ptr %7, align 8
  %46 = getelementptr inbounds nuw %struct.SDL_WindowData, ptr %45, i32 0, i32 1
  %47 = load i64, ptr %46, align 8
  %48 = getelementptr inbounds nuw %struct.XClientMessageEvent, ptr %11, i32 0, i32 4
  store i64 %47, ptr %48, align 8
  %49 = load ptr, ptr @X11_XInternAtom, align 8
  %50 = load ptr, ptr %9, align 8
  %51 = call i64 %49(ptr noundef %50, ptr noundef @.str.40, i32 noundef 0)
  %52 = getelementptr inbounds nuw %struct.XClientMessageEvent, ptr %11, i32 0, i32 5
  store i64 %51, ptr %52, align 8
  %53 = getelementptr inbounds nuw %struct.XClientMessageEvent, ptr %11, i32 0, i32 7
  %54 = getelementptr inbounds [5 x i64], ptr %53, i64 0, i64 0
  store i64 0, ptr %54, align 8
  %55 = load i32, ptr %13, align 4
  %56 = sext i32 %55 to i64
  %57 = getelementptr inbounds nuw %struct.XClientMessageEvent, ptr %11, i32 0, i32 7
  %58 = getelementptr inbounds [5 x i64], ptr %57, i64 0, i64 1
  store i64 %56, ptr %58, align 8
  %59 = load i32, ptr %14, align 4
  %60 = sext i32 %59 to i64
  %61 = getelementptr inbounds nuw %struct.XClientMessageEvent, ptr %11, i32 0, i32 7
  %62 = getelementptr inbounds [5 x i64], ptr %61, i64 0, i64 2
  store i64 %60, ptr %62, align 8
  %63 = getelementptr inbounds nuw %struct.XClientMessageEvent, ptr %11, i32 0, i32 6
  store i32 32, ptr %63, align 8
  %64 = load ptr, ptr @X11_XSendEvent, align 8
  %65 = load ptr, ptr %9, align 8
  %66 = load i64, ptr %10, align 8
  %67 = call i32 %64(ptr noundef %65, i64 noundef %66, i32 noundef 0, i64 noundef 1572864, ptr noundef %11)
  %68 = load ptr, ptr @X11_XFlush, align 8
  %69 = load ptr, ptr %9, align 8
  %70 = call i32 %68(ptr noundef %69)
  call void @llvm.lifetime.end.p0(i64 4, ptr %14) #7
  call void @llvm.lifetime.end.p0(i64 4, ptr %13) #7
  call void @llvm.lifetime.end.p0(i64 8, ptr %12) #7
  call void @llvm.lifetime.end.p0(i64 96, ptr %11) #7
  call void @llvm.lifetime.end.p0(i64 8, ptr %10) #7
  call void @llvm.lifetime.end.p0(i64 8, ptr %9) #7
  call void @llvm.lifetime.end.p0(i64 8, ptr %8) #7
  call void @llvm.lifetime.end.p0(i64 8, ptr %7) #7
  ret void
}