; Function Attrs: nounwind uwtable
define hidden void @X11_ShowWindowSystemMenu(ptr noundef %0, i32 noundef %1, i32 noundef %2) local_unnamed_addr #0 {
  %4 = alloca %struct.XClientMessageEvent, align 8
  %5 = alloca i64, align 8
  %6 = alloca i32, align 4
  %7 = alloca i32, align 4
  %8 = getelementptr inbounds nuw i8, ptr %0, i64 392
  %9 = load ptr, ptr %8, align 8
  %10 = tail call ptr @SDL_GetDisplayDriverDataForWindow(ptr noundef %0) #12
  %11 = getelementptr inbounds nuw i8, ptr %9, i64 336
  %12 = load ptr, ptr %11, align 8
  %13 = load ptr, ptr %12, align 8
  %14 = getelementptr inbounds nuw i8, ptr %13, i64 232
  %15 = load ptr, ptr %14, align 8
  %16 = load i32, ptr %10, align 8
  %17 = sext i32 %16 to i64
  %18 = getelementptr inbounds %struct.Screen, ptr %15, i64 %17, i32 2
  %19 = load i64, ptr %18, align 8
  call void @llvm.lifetime.start.p0(i64 96, ptr nonnull %4) #12
  call void @llvm.lifetime.start.p0(i64 8, ptr nonnull %5) #12
  call void @llvm.lifetime.start.p0(i64 4, ptr nonnull %6) #12
  call void @llvm.lifetime.start.p0(i64 4, ptr nonnull %7) #12
  call void @llvm.memset.p0.i64(ptr noundef nonnull align 8 dereferenceable(96) %4, i8 0, i64 96, i1 false)
  %20 = load ptr, ptr @X11_XTranslateCoordinates, align 8
  %21 = getelementptr inbounds nuw i8, ptr %9, i64 8
  %22 = load i64, ptr %21, align 8
  %23 = call i32 %20(ptr noundef %13, i64 noundef %22, i64 noundef %19, i32 noundef %1, i32 noundef %2, ptr noundef nonnull %6, ptr noundef nonnull %7, ptr noundef nonnull %5) #12
  store i32 33, ptr %4, align 8
  %24 = load i64, ptr %21, align 8
  %25 = getelementptr inbounds nuw i8, ptr %4, i64 32
  store i64 %24, ptr %25, align 8
  %26 = load ptr, ptr @X11_XInternAtom, align 8
  %27 = call i64 %26(ptr noundef %13, ptr noundef nonnull @.str.40, i32 noundef 0) #12
  %28 = getelementptr inbounds nuw i8, ptr %4, i64 40
  store i64 %27, ptr %28, align 8
  %29 = getelementptr inbounds nuw i8, ptr %4, i64 56
  store i64 0, ptr %29, align 8
  %30 = load i32, ptr %6, align 4
  %31 = sext i32 %30 to i64
  %32 = getelementptr inbounds nuw i8, ptr %4, i64 64
  store i64 %31, ptr %32, align 8
  %33 = load i32, ptr %7, align 4
  %34 = sext i32 %33 to i64
  %35 = getelementptr inbounds nuw i8, ptr %4, i64 72
  store i64 %34, ptr %35, align 8
  %36 = getelementptr inbounds nuw i8, ptr %4, i64 48
  store i32 32, ptr %36, align 8
  %37 = load ptr, ptr @X11_XSendEvent, align 8
  %38 = call i32 %37(ptr noundef %13, i64 noundef %19, i32 noundef 0, i64 noundef 1572864, ptr noundef nonnull %4) #12
  %39 = load ptr, ptr @X11_XFlush, align 8
  %40 = call i32 %39(ptr noundef %13) #12
  call void @llvm.lifetime.end.p0(i64 4, ptr nonnull %7) #12
  call void @llvm.lifetime.end.p0(i64 4, ptr nonnull %6) #12
  call void @llvm.lifetime.end.p0(i64 8, ptr nonnull %5) #12
  call void @llvm.lifetime.end.p0(i64 96, ptr nonnull %4) #12
  ret void
}